target datalayout = "e-m:e-p270:32:32-p271:32:32-p272:64:64-i64:64-i128:128-f80:128-n8:16:32:64-S128"
target triple = "x86_64-pc-linux-gnu"

%struct.pm_newline_list_t = type { ptr, i64, i64, ptr }
%struct.pm_line_column_t = type { i32, i32 }

; Function Attrs: nounwind sspstrong uwtable
define hidden i64 @pm_newline_list_line_column(ptr noundef %0, ptr noundef %1, i32 noundef %2) #0 {
  %4 = alloca %struct.pm_line_column_t, align 4
  %5 = alloca ptr, align 8
  %6 = alloca ptr, align 8
  %7 = alloca i32, align 4
  %8 = alloca i64, align 8
  %9 = alloca i64, align 8
  %10 = alloca i64, align 8
  %11 = alloca i64, align 8
  %12 = alloca i32, align 4
  store ptr %0, ptr %5, align 8, !tbaa !7
  store ptr %1, ptr %6, align 8, !tbaa !11
  store i32 %2, ptr %7, align 4, !tbaa !22
  call void @llvm.lifetime.start.p0(i64 8, ptr %8) #7
  %13 = load ptr, ptr %6, align 8, !tbaa !11
  %14 = load ptr, ptr %5, align 8, !tbaa !7
  %15 = getelementptr inbounds nuw %struct.pm_newline_list_t, ptr %14, i32 0, i32 0
  %16 = load ptr, ptr %15, align 8, !tbaa !18
  %17 = ptrtoint ptr %13 to i64
  %18 = ptrtoint ptr %16 to i64
  %19 = sub i64 %17, %18
  store i64 %19, ptr %8, align 8, !tbaa !13
  call void @llvm.lifetime.start.p0(i64 8, ptr %9) #7
  store i64 0, ptr %9, align 8, !tbaa !13
  call void @llvm.lifetime.start.p0(i64 8, ptr %10) #7
  %20 = load ptr, ptr %5, align 8, !tbaa !7
  %21 = getelementptr inbounds nuw %struct.pm_newline_list_t, ptr %20, i32 0, i32 1
  %22 = load i64, ptr %21, align 8, !tbaa !19
  %23 = sub i64 %22, 1
  store i64 %23, ptr %10, align 8, !tbaa !13
  br label %24

24:                                               ; preds = %68, %3
  %25 = load i64, ptr %9, align 8, !tbaa !13
  %26 = load i64, ptr %10, align 8, !tbaa !13
  %27 = icmp ule i64 %25, %26
  br i1 %27, label %28, label %69

28:                                               ; preds = %24
  call void @llvm.lifetime.start.p0(i64 8, ptr %11) #7
  %29 = load i64, ptr %9, align 8, !tbaa !13
  %30 = load i64, ptr %10, align 8, !tbaa !13
  %31 = load i64, ptr %9, align 8, !tbaa !13
  %32 = sub i64 %30, %31
  %33 = udiv i64 %32, 2
  %34 = add i64 %29, %33
  store i64 %34, ptr %11, align 8, !tbaa !13
  %35 = load ptr, ptr %5, align 8, !tbaa !7
  %36 = getelementptr inbounds nuw %struct.pm_newline_list_t, ptr %35, i32 0, i32 3
  %37 = load ptr, ptr %36, align 8, !tbaa !15
  %38 = load i64, ptr %11, align 8, !tbaa !13
  %39 = getelementptr i64, ptr %37, i64 %38
  %40 = load i64, ptr %39, align 8, !tbaa !13
  %41 = load i64, ptr %8, align 8, !tbaa !13
  %42 = icmp eq i64 %40, %41
  br i1 %42, label %43, label %50

43:                                               ; preds = %28
  %44 = getelementptr inbounds nuw %struct.pm_line_column_t, ptr %4, i32 0, i32 0
  %45 = load i64, ptr %11, align 8, !tbaa !13
  %46 = trunc i64 %45 to i32
  %47 = load i32, ptr %7, align 4, !tbaa !22
  %48 = add i32 %46, %47
  store i32 %48, ptr %44, align 4, !tbaa !26
  %49 = getelementptr inbounds nuw %struct.pm_line_column_t, ptr %4, i32 0, i32 1
  store i32 0, ptr %49, align 4, !tbaa !28
  store i32 1, ptr %12, align 4
  br label %66

50:                                               ; preds = %28
  %51 = load ptr, ptr %5, align 8, !tbaa !7
  %52 = getelementptr inbounds nuw %struct.pm_newline_list_t, ptr %51, i32 0, i32 3
  %53 = load ptr, ptr %52, align 8, !tbaa !15
  %54 = load i64, ptr %11, align 8, !tbaa !13
  %55 = getelementptr i64, ptr %53, i64 %54
  %56 = load i64, ptr %55, align 8, !tbaa !13
  %57 = load i64, ptr %8, align 8, !tbaa !13
  %58 = icmp ult i64 %56, %57
  br i1 %58, label %59, label %62

59:                                               ; preds = %50
  %60 = load i64, ptr %11, align 8, !tbaa !13
  %61 = add i64 %60, 1
  store i64 %61, ptr %9, align 8, !tbaa !13
  br label %65

62:                                               ; preds = %50
  %63 = load i64, ptr %11, align 8, !tbaa !13
  %64 = sub i64 %63, 1
  store i64 %64, ptr %10, align 8, !tbaa !13
  br label %65

65:                                               ; preds = %62, %59
  store i32 0, ptr %12, align 4
  br label %66

66:                                               ; preds = %65, %43
  call void @llvm.lifetime.end.p0(i64 8, ptr %11) #7
  %67 = load i32, ptr %12, align 4
  switch i32 %67, label %87 [
    i32 0, label %68
  ]

68:                                               ; preds = %66
  br label %24, !llvm.loop !29

69:                                               ; preds = %24
  %70 = getelementptr inbounds nuw %struct.pm_line_column_t, ptr %4, i32 0, i32 0
  %71 = load i64, ptr %9, align 8, !tbaa !13
  %72 = trunc i64 %71 to i32
  %73 = load i32, ptr %7, align 4, !tbaa !22
  %74 = add i32 %72, %73
  %75 = sub i32 %74, 1
  store i32 %75, ptr %70, align 4, !tbaa !26
  %76 = getelementptr inbounds nuw %struct.pm_line_column_t, ptr %4, i32 0, i32 1
  %77 = load i64, ptr %8, align 8, !tbaa !13
  %78 = load ptr, ptr %5, align 8, !tbaa !7
  %79 = getelementptr inbounds nuw %struct.pm_newline_list_t, ptr %78, i32 0, i32 3
  %80 = load ptr, ptr %79, align 8, !tbaa !15
  %81 = load i64, ptr %9, align 8, !tbaa !13
  %82 = sub i64 %81, 1
  %83 = getelementptr i64, ptr %80, i64 %82
  %84 = load i64, ptr %83, align 8, !tbaa !13
  %85 = sub i64 %77, %84
  %86 = trunc i64 %85 to i32
  store i32 %86, ptr %76, align 4, !tbaa !28
  store i32 1, ptr %12, align 4
  br label %87

87:                                               ; preds = %69, %66
  call void @llvm.lifetime.end.p0(i64 8, ptr %10) #7
  call void @llvm.lifetime.end.p0(i64 8, ptr %9) #7
  call void @llvm.lifetime.end.p0(i64 8, ptr %8) #7
  %88 = load i64, ptr %4, align 4
  ret i64 %88
}