; Function Attrs: nofree norecurse nosync nounwind sspstrong memory(read, inaccessiblemem: none) uwtable
define hidden i64 @pm_newline_list_line_column(ptr noundef readonly captures(none) %0, ptr noundef %1, i32 noundef %2) local_unnamed_addr #5 {
  %4 = load ptr, ptr %0, align 8, !tbaa !15
  %5 = ptrtoint ptr %1 to i64
  %6 = ptrtoint ptr %4 to i64
  %7 = sub i64 %5, %6
  %8 = getelementptr inbounds nuw i8, ptr %0, i64 8
  %9 = load i64, ptr %8, align 8, !tbaa !16
  %10 = add i64 %9, -1
  %11 = getelementptr inbounds nuw i8, ptr %0, i64 24
  %12 = load ptr, ptr %11, align 8, !tbaa !7
  br label %13

13:                                               ; preds = %3, %21
  %.02335 = phi i64 [ %10, %3 ], [ %.2, %21 ]
  %.02434 = phi i64 [ 0, %3 ], [ %.226, %21 ]
  %14 = sub nuw i64 %.02335, %.02434
  %15 = lshr i64 %14, 1
  %16 = add i64 %15, %.02434
  %17 = getelementptr i64, ptr %12, i64 %16
  %18 = load i64, ptr %17, align 8, !tbaa !18
  %.not29 = icmp eq i64 %18, %7
  br i1 %.not29, label %.thread, label %21

.thread:                                          ; preds = %13
  %19 = trunc i64 %16 to i32
  %20 = add i32 %2, %19
  br label %34

21:                                               ; preds = %13
  %22 = icmp ult i64 %18, %7
  %23 = add i64 %16, 1
  %24 = add i64 %16, -1
  %.226 = select i1 %22, i64 %23, i64 %.02434
  %.2 = select i1 %22, i64 %.02335, i64 %24
  %.not = icmp ugt i64 %.226, %.2
  br i1 %.not, label %25, label %13

25:                                               ; preds = %21
  %26 = trunc i64 %.226 to i32
  %27 = add i32 %2, -1
  %28 = add i32 %27, %26
  %29 = getelementptr i64, ptr %12, i64 %.226
  %30 = getelementptr i8, ptr %29, i64 -8
  %31 = load i64, ptr %30, align 8, !tbaa !18
  %32 = sub i64 %7, %31
  %33 = shl i64 %32, 32
  br label %34

34:                                               ; preds = %.thread, %25
  %.sroa.0.2 = phi i32 [ %28, %25 ], [ %20, %.thread ]
  %.sroa.3.2 = phi i64 [ %33, %25 ], [ 0, %.thread ]
  %.sroa.0.0.insert.ext = zext i32 %.sroa.0.2 to i64
  %.sroa.0.0.insert.insert = or disjoint i64 %.sroa.3.2, %.sroa.0.0.insert.ext
  ret i64 %.sroa.0.0.insert.insert
}